target datalayout = "e-m:e-p270:32:32-p271:32:32-p272:64:64-i64:64-i128:128-f80:128-n8:16:32:64-S128"
target triple = "x86_64-pc-linux-gnu"

%class.RAROptions = type { i32, i32, i8, i8, i8, i64, [2048 x i32], [2048 x i32], i32, i8, [2048 x i32], [2048 x i32], i32, i32, i32, i32, [2048 x i32], [2048 x i32], i8, i8, i8, [2048 x i32], i32, i32, i32, i32, i32, i32, i32, i32, i8, i8, i8, i8, i8, i32, i32, i8, i8, i8, i8, i8, i32, i32, i64, i32, i8, i8, i8, i32, i32, i8, i8, i8, i8, i32, i32, i8, i8, i8, i8, [128 x i32], [128 x i32], i8, i8, i8, i8, i8, %class.RarTime, %class.RarTime, %class.RarTime, i8, i8, i8, %class.RarTime, %class.RarTime, %class.RarTime, i8, i8, i8, i64, i64, i8, i8, i8, [16 x %struct.FilterMode], [2048 x i32], i32, i32, i32, i32, i32, i32, i8, [2048 x i32], i32, [2048 x i32], i32, i32, i64, ptr, ptr, ptr }
%class.RarTime = type { i64 }
%struct.FilterMode = type { i32, i32, i32 }

; Function Attrs: mustprogress uwtable
define void @_ZN11CommandData16SetStoreTimeModeEPKw(ptr noundef nonnull align 8 dereferenceable(100904) %0, ptr noundef %1) #0 align 2 {
  %3 = alloca ptr, align 8
  %4 = alloca ptr, align 8
  %5 = alloca i32, align 4
  %6 = alloca i32, align 4
  store ptr %0, ptr %3, align 8
  store ptr %1, ptr %4, align 8
  %7 = load ptr, ptr %3, align 8
  %8 = load ptr, ptr %4, align 8
  %9 = load i32, ptr %8, align 4
  %10 = icmp eq i32 %9, 0
  br i1 %10, label %23, label %11

11:                                               ; preds = %2
  %12 = load ptr, ptr %4, align 8
  %13 = load i32, ptr %12, align 4
  %14 = call noundef zeroext i1 @_Z7IsDigiti(i32 noundef %13)
  br i1 %14, label %23, label %15

15:                                               ; preds = %11
  %16 = load ptr, ptr %4, align 8
  %17 = load i32, ptr %16, align 4
  %18 = icmp eq i32 %17, 45
  br i1 %18, label %23, label %19

19:                                               ; preds = %15
  %20 = load ptr, ptr %4, align 8
  %21 = load i32, ptr %20, align 4
  %22 = icmp eq i32 %21, 43
  br i1 %22, label %23, label %40

23:                                               ; preds = %19, %15, %11, %2
  store i32 2, ptr %5, align 4
  %24 = load ptr, ptr %4, align 8
  %25 = load i32, ptr %24, align 4
  %26 = icmp eq i32 %25, 45
  br i1 %26, label %27, label %28

27:                                               ; preds = %23
  store i32 0, ptr %5, align 4
  br label %28

28:                                               ; preds = %27, %23
  %29 = load ptr, ptr %4, align 8
  %30 = load i32, ptr %29, align 4
  %31 = icmp eq i32 %30, 49
  br i1 %31, label %32, label %33

32:                                               ; preds = %28
  store i32 1, ptr %5, align 4
  br label %33

33:                                               ; preds = %32, %28
  %34 = load i32, ptr %5, align 4
  %35 = getelementptr inbounds %class.RAROptions, ptr %7, i32 0, i32 92
  store i32 %34, ptr %35, align 8
  %36 = getelementptr inbounds %class.RAROptions, ptr %7, i32 0, i32 91
  store i32 %34, ptr %36, align 4
  %37 = getelementptr inbounds %class.RAROptions, ptr %7, i32 0, i32 90
  store i32 %34, ptr %37, align 8
  %38 = load ptr, ptr %4, align 8
  %39 = getelementptr inbounds i32, ptr %38, i32 1
  store ptr %39, ptr %4, align 8
  br label %40

40:                                               ; preds = %33, %19
  br label %41

41:                                               ; preds = %72, %40
  %42 = load ptr, ptr %4, align 8
  %43 = load i32, ptr %42, align 4
  %44 = icmp ne i32 %43, 0
  br i1 %44, label %45, label %75

45:                                               ; preds = %41
  store i32 2, ptr %6, align 4
  %46 = load ptr, ptr %4, align 8
  %47 = getelementptr inbounds i32, ptr %46, i64 1
  %48 = load i32, ptr %47, align 4
  %49 = icmp eq i32 %48, 45
  br i1 %49, label %50, label %51

50:                                               ; preds = %45
  store i32 0, ptr %6, align 4
  br label %51

51:                                               ; preds = %50, %45
  %52 = load ptr, ptr %4, align 8
  %53 = getelementptr inbounds i32, ptr %52, i64 1
  %54 = load i32, ptr %53, align 4
  %55 = icmp eq i32 %54, 49
  br i1 %55, label %56, label %57

56:                                               ; preds = %51
  store i32 1, ptr %6, align 4
  br label %57

57:                                               ; preds = %56, %51
  %58 = load ptr, ptr %4, align 8
  %59 = load i32, ptr %58, align 4
  %60 = call noundef i32 @_Z8toupperwi(i32 noundef %59)
  switch i32 %60, label %72 [
    i32 77, label %61
    i32 67, label %64
    i32 65, label %67
    i32 80, label %70
  ]

61:                                               ; preds = %57
  %62 = load i32, ptr %6, align 4
  %63 = getelementptr inbounds %class.RAROptions, ptr %7, i32 0, i32 90
  store i32 %62, ptr %63, align 8
  br label %72

64:                                               ; preds = %57
  %65 = load i32, ptr %6, align 4
  %66 = getelementptr inbounds %class.RAROptions, ptr %7, i32 0, i32 91
  store i32 %65, ptr %66, align 4
  br label %72

67:                                               ; preds = %57
  %68 = load i32, ptr %6, align 4
  %69 = getelementptr inbounds %class.RAROptions, ptr %7, i32 0, i32 92
  store i32 %68, ptr %69, align 8
  br label %72

70:                                               ; preds = %57
  %71 = getelementptr inbounds %class.RAROptions, ptr %7, i32 0, i32 93
  store i8 1, ptr %71, align 4
  br label %72

72:                                               ; preds = %70, %67, %64, %61, %57
  %73 = load ptr, ptr %4, align 8
  %74 = getelementptr inbounds i32, ptr %73, i32 1
  store ptr %74, ptr %4, align 8
  br label %41, !llvm.loop !9

75:                                               ; preds = %41
  ret void
}