; Function Attrs: mustprogress uwtable
define void @_ZN11CommandData16SetStoreTimeModeEPKw(ptr noundef nonnull writeonly align 8 captures(none) dereferenceable(100904) %0, ptr noundef readonly captures(none) %1) local_unnamed_addr #0 align 2 {
  %3 = load i32, ptr %1, align 4
  %4 = icmp eq i32 %3, 0
  br i1 %4, label %.thread27, label %5

5:                                                ; preds = %2
  %6 = tail call noundef zeroext i1 @_Z7IsDigiti(i32 noundef %3)
  %.pre = load i32, ptr %1, align 4
  %.pre.fr = freeze i32 %.pre
  br i1 %6, label %8, label %7

7:                                                ; preds = %5
  switch i32 %.pre.fr, label %16 [
    i32 45, label %8
    i32 43, label %8
  ]

8:                                                ; preds = %7, %7, %5
  %9 = icmp eq i32 %.pre.fr, 45
  %spec.select = select i1 %9, i32 0, i32 2
  %10 = icmp eq i32 %.pre.fr, 49
  %spec.select29 = select i1 %10, i32 1, i32 %spec.select
  br label %.thread27

.thread27:                                        ; preds = %8, %2
  %11 = phi i32 [ 2, %2 ], [ %spec.select29, %8 ]
  %12 = getelementptr inbounds nuw i8, ptr %0, i64 67024
  store i32 %11, ptr %12, align 8
  %13 = getelementptr inbounds nuw i8, ptr %0, i64 67020
  store i32 %11, ptr %13, align 4
  %14 = getelementptr inbounds nuw i8, ptr %0, i64 67016
  store i32 %11, ptr %14, align 8
  %15 = getelementptr inbounds nuw i8, ptr %1, i64 4
  %.pre24 = load i32, ptr %15, align 4
  br label %16

16:                                               ; preds = %7, %.thread27
  %17 = phi i32 [ %.pre24, %.thread27 ], [ %.pre.fr, %7 ]
  %.0 = phi ptr [ %15, %.thread27 ], [ %1, %7 ]
  %.not22 = icmp eq i32 %17, 0
  br i1 %.not22, label %._crit_edge, label %.lr.ph

.lr.ph:                                           ; preds = %16
  %18 = getelementptr inbounds nuw i8, ptr %0, i64 67028
  %19 = getelementptr inbounds nuw i8, ptr %0, i64 67024
  %20 = getelementptr inbounds nuw i8, ptr %0, i64 67020
  %21 = getelementptr inbounds nuw i8, ptr %0, i64 67016
  br label %22

22:                                               ; preds = %.lr.ph, %33
  %23 = phi i32 [ %17, %.lr.ph ], [ %34, %33 ]
  %.123 = phi ptr [ %.0, %.lr.ph ], [ %24, %33 ]
  %24 = getelementptr inbounds nuw i8, ptr %.123, i64 4
  %25 = load i32, ptr %24, align 4
  %26 = icmp eq i32 %25, 45
  %spec.store.select1 = select i1 %26, i32 0, i32 2
  %27 = icmp eq i32 %25, 49
  %spec.store.select3 = select i1 %27, i32 1, i32 %spec.store.select1
  %28 = tail call noundef i32 @_Z8toupperwi(i32 noundef %23)
  switch i32 %28, label %33 [
    i32 77, label %29
    i32 67, label %30
    i32 65, label %31
    i32 80, label %32
  ]

29:                                               ; preds = %22
  store i32 %spec.store.select3, ptr %21, align 8
  br label %33

30:                                               ; preds = %22
  store i32 %spec.store.select3, ptr %20, align 4
  br label %33

31:                                               ; preds = %22
  store i32 %spec.store.select3, ptr %19, align 8
  br label %33

32:                                               ; preds = %22
  store i8 1, ptr %18, align 4
  br label %33

33:                                               ; preds = %32, %31, %30, %29, %22
  %34 = load i32, ptr %24, align 4
  %.not = icmp eq i32 %34, 0
  br i1 %.not, label %._crit_edge, label %22, !llvm.loop !9

._crit_edge:                                      ; preds = %33, %16
  ret void
}